(lp1
(lp2
I48
aI0
aI0
aI0
aa(lp3
I25
aI0
aI0
aI0
aa(lp4
I25
aI0
aI0
aI0
aa(lp5
I20
aI0
aI0
aI0
aa(lp6
I29
aI0
aI0
aI0
aa(lp7
I32
aI0
aI0
aI0
aa(lp8
I26
aI1
aI0
aI0
aa(lp9
I24
aI0
aI0
aI0
aa(lp10
I21
aI0
aI0
aI0
aa(lp11
I43
aI0
aI0
aI0
aa(lp12
I22
aI0
aI0
aI0
aa(lp13
I31
aI0
aI0
aI0
aa(lp14
I33
aI1
aI0
aI0
aa(lp15
I16
aI0
aI0
aI0
aa(lp16
I31
aI1
aI0
aI0
aa(lp17
I51
aI0
aI0
aI0
aa(lp18
I32
aI0
aI0
aI0
aa(lp19
I36
aI0
aI0
aI0
aa(lp20
I27
aI2
aI0
aI0
aa(lp21
I34
aI1
aI0
aI0
aa(lp22
I38
aI1
aI0
aI0
aa(lp23
I29
aI1
aI0
aI0
aa.