(lp1
(lp2
I0
aI0
aI0
aI0
aa(lp3
I24
aI0
aI0
aI0
aa(lp4
I19
aI0
aI0
aI0
aa(lp5
I18
aI0
aI0
aI0
aa(lp6
I40
aI0
aI0
aI0
aa(lp7
I34
aI0
aI0
aI0
aa(lp8
I23
aI0
aI0
aI0
aa(lp9
I29
aI0
aI0
aI0
aa(lp10
I18
aI1
aI0
aI0
aa(lp11
I40
aI0
aI0
aI0
aa(lp12
I30
aI1
aI0
aI0
aa(lp13
I23
aI1
aI0
aI0
aa(lp14
I39
aI0
aI0
aI0
aa(lp15
I19
aI0
aI0
aI0
aa(lp16
I0
aI0
aI0
aI0
aa(lp17
I0
aI0
aI0
aI0
aa(lp18
I26
aI0
aI0
aI0
aa(lp19
I0
aI0
aI0
aI0
aa(lp20
I23
aI0
aI0
aI0
aa(lp21
I33
aI0
aI0
aI0
aa(lp22
I0
aI0
aI0
aI0
aa(lp23
I30
aI1
aI0
aI0
aa.